; Function Attrs: nounwind uwtable
define internal i32 @SpoolssSetPrinter_q(ptr noundef %0, i32 noundef %1, ptr noundef %2, ptr noundef %3, ptr noundef %4, ptr noundef %5) #0 {
  %7 = alloca i32, align 4
  %8 = load i32, ptr @hf_hnd, align 4
  %9 = tail call i32 @dissect_nt_policy_hnd(ptr noundef %0, i32 noundef %1, ptr noundef %2, ptr noundef %3, ptr noundef %4, ptr noundef %5, i32 noundef %8, ptr noundef null, ptr noundef null, i32 noundef 0, i32 noundef 0) #5
  %10 = load i32, ptr @hf_level, align 4
  %11 = call i32 @dissect_ndr_uint32(ptr noundef %0, i32 noundef %9, ptr noundef %2, ptr noundef %3, ptr noundef %4, ptr noundef %5, i32 noundef %10, ptr noundef nonnull %7) #5
  %12 = getelementptr inbounds nuw i8, ptr %2, i64 8
  %13 = load ptr, ptr %12, align 8
  %14 = load i32, ptr %7, align 4
  call void (ptr, i32, ptr, ...) @col_append_fstr(ptr noundef %13, i32 noundef 25, ptr noundef nonnull @.str.1206, i32 noundef %14) #5
  %15 = call i32 @dissect_SPOOL_PRINTER_INFO(ptr noundef %0, i32 noundef %11, ptr noundef %2, ptr noundef %3, ptr noundef %4, ptr noundef %5)
  %16 = load i32, ptr @hf_setprinter_cmd, align 4
  %17 = call i32 @dissect_ndr_uint32(ptr noundef %0, i32 noundef %15, ptr noundef %2, ptr noundef %3, ptr noundef %4, ptr noundef %5, i32 noundef %16, ptr noundef null) #5
  ret i32 %17
}